; Function Attrs: null_pointer_is_valid sspstrong uwtable
define hidden i32 @mapi_dissect_struct_FindRow_req(ptr noundef %0, i32 noundef %1, ptr noundef %2, ptr noundef %3, ptr noundef %4, ptr noundef %5, i32 noundef %6, i32 %7) local_unnamed_addr #0 {
  %9 = alloca i8, align 1
  %10 = alloca i8, align 1
  %11 = getelementptr inbounds nuw i8, ptr %4, i64 26
  %12 = load i8, ptr %11, align 2, !range !9, !noundef !10
  store i8 1, ptr %11, align 2
  %.not = icmp eq ptr %3, null
  br i1 %.not, label %17, label %13

13:                                               ; preds = %8
  %14 = tail call ptr @proto_tree_add_item(ptr noundef nonnull %3, i32 noundef %6, ptr noundef %0, i32 noundef %1, i32 noundef -1, i32 noundef 0)
  %15 = load i32, ptr @ett_mapi_FindRow_req, align 4
  %16 = tail call ptr @proto_item_add_subtree(ptr noundef %14, i32 noundef %15)
  br label %17

17:                                               ; preds = %13, %8
  %.050 = phi ptr [ %16, %13 ], [ null, %8 ]
  %.0 = phi ptr [ %14, %13 ], [ null, %8 ]
  %18 = load i32, ptr @hf_mapi_LogonId, align 4
  %19 = tail call i32 @PIDL_dissect_uint8(ptr noundef %0, i32 noundef %1, ptr noundef %2, ptr noundef %.050, ptr noundef %4, ptr noundef %5, i32 noundef %18, i32 noundef 0)
  %20 = load i32, ptr @hf_mapi_InputHandleIndex, align 4
  %21 = tail call i32 @PIDL_dissect_uint8(ptr noundef %0, i32 noundef %19, ptr noundef %2, ptr noundef %.050, ptr noundef %4, ptr noundef %5, i32 noundef %20, i32 noundef 0)
  %22 = load i32, ptr @hf_mapi_FindRow_req_ulFlags, align 4
  call void @llvm.lifetime.start.p0(i64 1, ptr nonnull %10) #6
  store i8 0, ptr %10, align 1
  %23 = call i32 @dissect_ndr_uint8(ptr noundef %0, i32 noundef %21, ptr noundef %2, ptr noundef %.050, ptr noundef %4, ptr noundef %5, i32 noundef %22, ptr noundef nonnull %10)
  call void @llvm.lifetime.end.p0(i64 1, ptr nonnull %10) #6
  %24 = load i32, ptr @hf_mapi_FindRow_req_res, align 4
  %25 = call i32 @mapi_dissect_struct_SRestriction(ptr noundef %0, i32 noundef %23, ptr noundef %2, ptr noundef %.050, ptr noundef %4, ptr noundef %5, i32 noundef %24, i32 poison)
  %26 = load i32, ptr @hf_mapi_FindRow_req_origin, align 4
  call void @llvm.lifetime.start.p0(i64 1, ptr nonnull %9) #6
  store i8 0, ptr %9, align 1
  %27 = call i32 @dissect_ndr_uint8(ptr noundef %0, i32 noundef %25, ptr noundef %2, ptr noundef %.050, ptr noundef %4, ptr noundef %5, i32 noundef %26, ptr noundef nonnull %9)
  call void @llvm.lifetime.end.p0(i64 1, ptr nonnull %9) #6
  %28 = load i32, ptr @hf_mapi_FindRow_req_bookmark, align 4
  %29 = load i8, ptr %11, align 2, !range !9, !noundef !10
  store i8 1, ptr %11, align 2
  %.not.i.i = icmp eq ptr %.050, null
  br i1 %.not.i.i, label %mapi_dissect_element_FindRow_req_bookmark.exit, label %30

30:                                               ; preds = %17
  %31 = call ptr @proto_tree_add_item(ptr noundef nonnull %.050, i32 noundef %28, ptr noundef %0, i32 noundef %27, i32 noundef -1, i32 noundef 0)
  %32 = load i32, ptr @ett_mapi_SBinary_short, align 4
  %33 = call ptr @proto_item_add_subtree(ptr noundef %31, i32 noundef %32)
  br label %mapi_dissect_element_FindRow_req_bookmark.exit

mapi_dissect_element_FindRow_req_bookmark.exit:   ; preds = %17, %30
  %.026.i.i = phi ptr [ %33, %30 ], [ null, %17 ]
  %.0.i.i = phi ptr [ %31, %30 ], [ null, %17 ]
  %34 = load i32, ptr @hf_mapi_SBinary_short_cb, align 4
  %35 = call i32 @PIDL_dissect_uint16(ptr noundef %0, i32 noundef %27, ptr noundef %2, ptr noundef %.026.i.i, ptr noundef %4, ptr noundef %5, i32 noundef %34, i32 noundef 0)
  %36 = call i32 @dissect_ndr_ucarray(ptr noundef %0, i32 noundef %35, ptr noundef %2, ptr noundef %.026.i.i, ptr noundef %4, ptr noundef %5, ptr noundef nonnull @mapi_dissect_element_SBinary_short_lpb_)
  %37 = sub i32 %36, %27
  call void @proto_item_set_len(ptr noundef %.0.i.i, i32 noundef %37)
  store i8 %29, ptr %11, align 2
  %38 = sub i32 %36, %1
  call void @proto_item_set_len(ptr noundef %.0, i32 noundef %38)
  store i8 %12, ptr %11, align 2
  ret i32 %36
}